target datalayout = "e-m:e-p270:32:32-p271:32:32-p272:64:64-i64:64-i128:128-f80:128-n8:16:32:64-S128"
target triple = "x86_64-pc-linux-gnu"

%"class.google::protobuf::io::EpsCopyOutputStream" = type <{ ptr, ptr, [32 x i8], ptr, i8, i8, i8, [5 x i8] }>
%"class.google::protobuf::io::CodedOutputStream" = type { %"class.google::protobuf::io::EpsCopyOutputStream", ptr, i64 }

; Function Attrs: mustprogress uwtable
define linkonce_odr hidden void @_ZN6google8protobuf2io17CodedOutputStream4TrimEv(ptr noundef nonnull align 8 dereferenceable(80) %0) #5 comdat align 2 {
  %2 = alloca ptr, align 8
  store ptr %0, ptr %2, align 8, !tbaa !105
  %3 = load ptr, ptr %2, align 8
  %4 = getelementptr inbounds nuw %"class.google::protobuf::io::CodedOutputStream", ptr %3, i32 0, i32 0
  %5 = getelementptr inbounds nuw %"class.google::protobuf::io::CodedOutputStream", ptr %3, i32 0, i32 1
  %6 = load ptr, ptr %5, align 8, !tbaa !110
  %7 = call noundef ptr @_ZN6google8protobuf2io19EpsCopyOutputStream4TrimEPh(ptr noundef nonnull align 8 dereferenceable(59) %4, ptr noundef %6)
  %8 = getelementptr inbounds nuw %"class.google::protobuf::io::CodedOutputStream", ptr %3, i32 0, i32 1
  store ptr %7, ptr %8, align 8, !tbaa !110
  ret void
}

; Function Attrs: mustprogress nounwind uwtable
define hidden void @_ZN6google8protobuf2io17CodedOutputStreamD2Ev(ptr noundef nonnull align 8 dereferenceable(80) %0) unnamed_addr #4 align 2 personality ptr @__gxx_personality_v0 {
  %2 = alloca ptr, align 8
  store ptr %0, ptr %2, align 8, !tbaa !105
  %3 = load ptr, ptr %2, align 8
  invoke void @_ZN6google8protobuf2io17CodedOutputStream4TrimEv(ptr noundef nonnull align 8 dereferenceable(80) %3)
          to label %4 unwind label %5

4:                                                ; preds = %1
  ret void

5:                                                ; preds = %1
  %6 = landingpad { ptr, i32 }
          catch ptr null
  %7 = extractvalue { ptr, i32 } %6, 0
  call void @__clang_call_terminate(ptr %7) #15
  unreachable
}