; Function Attrs: mustprogress nounwind uwtable
define hidden void @_ZN6google8protobuf2io17CodedOutputStreamD2Ev(ptr noundef nonnull align 8 dereferenceable(80) %0) unnamed_addr #3 align 2 personality ptr @__gxx_personality_v0 {
  %2 = getelementptr inbounds nuw i8, ptr %0, i64 64
  %3 = load ptr, ptr %2, align 8, !tbaa !74
  %4 = invoke noundef ptr @_ZN6google8protobuf2io19EpsCopyOutputStream4TrimEPh(ptr noundef nonnull align 8 dereferenceable(80) %0, ptr noundef %3)
          to label %5 unwind label %6

5:                                                ; preds = %1
  store ptr %4, ptr %2, align 8, !tbaa !74
  ret void

6:                                                ; preds = %1
  %7 = landingpad { ptr, i32 }
          catch ptr null
  %8 = extractvalue { ptr, i32 } %7, 0
  tail call void @__clang_call_terminate(ptr %8) #17
  unreachable
}